target datalayout = "e-m:e-p270:32:32-p271:32:32-p272:64:64-i64:64-i128:128-f80:128-n8:16:32:64-S128"
target triple = "x86_64-pc-linux-gnu"

@.str.7 = private unnamed_addr constant [5 x i8] c"head\00", align 1
@.str.16 = private unnamed_addr constant [5 x i8] c"name\00", align 1

; Function Attrs: nounwind uwtable
define i32 @ttULONG(ptr noundef %0) #0 {
  %2 = alloca ptr, align 8
  store ptr %0, ptr %2, align 8, !tbaa !25
  %3 = load ptr, ptr %2, align 8, !tbaa !25
  %4 = getelementptr inbounds i8, ptr %3, i64 0
  %5 = load i8, ptr %4, align 1, !tbaa !13
  %6 = zext i8 %5 to i32
  %7 = shl i32 %6, 24
  %8 = load ptr, ptr %2, align 8, !tbaa !25
  %9 = getelementptr inbounds i8, ptr %8, i64 1
  %10 = load i8, ptr %9, align 1, !tbaa !13
  %11 = zext i8 %10 to i32
  %12 = shl i32 %11, 16
  %13 = add nsw i32 %7, %12
  %14 = load ptr, ptr %2, align 8, !tbaa !25
  %15 = getelementptr inbounds i8, ptr %14, i64 2
  %16 = load i8, ptr %15, align 1, !tbaa !13
  %17 = zext i8 %16 to i32
  %18 = shl i32 %17, 8
  %19 = add nsw i32 %13, %18
  %20 = load ptr, ptr %2, align 8, !tbaa !25
  %21 = getelementptr inbounds i8, ptr %20, i64 3
  %22 = load i8, ptr %21, align 1, !tbaa !13
  %23 = zext i8 %22 to i32
  %24 = add nsw i32 %19, %23
  ret i32 %24
}

; Function Attrs: nounwind uwtable
define zeroext i16 @ttUSHORT(ptr noundef %0) #0 {
  %2 = alloca ptr, align 8
  store ptr %0, ptr %2, align 8, !tbaa !25
  %3 = load ptr, ptr %2, align 8, !tbaa !25
  %4 = getelementptr inbounds i8, ptr %3, i64 0
  %5 = load i8, ptr %4, align 1, !tbaa !13
  %6 = zext i8 %5 to i32
  %7 = mul nsw i32 %6, 256
  %8 = load ptr, ptr %2, align 8, !tbaa !25
  %9 = getelementptr inbounds i8, ptr %8, i64 1
  %10 = load i8, ptr %9, align 1, !tbaa !13
  %11 = zext i8 %10 to i32
  %12 = add nsw i32 %7, %11
  %13 = trunc i32 %12 to i16
  ret i16 %13
}

; Function Attrs: nounwind uwtable
define i32 @stbtt__find_table(ptr noundef %0, i32 noundef %1, ptr noundef %2) #0 {
  %4 = alloca i32, align 4
  %5 = alloca ptr, align 8
  %6 = alloca i32, align 4
  %7 = alloca ptr, align 8
  %8 = alloca i32, align 4
  %9 = alloca i32, align 4
  %10 = alloca i32, align 4
  %11 = alloca i32, align 4
  %12 = alloca i32, align 4
  store ptr %0, ptr %5, align 8, !tbaa !25
  store i32 %1, ptr %6, align 4, !tbaa !14
  store ptr %2, ptr %7, align 8, !tbaa !25
  call void @llvm.lifetime.start.p0(i64 4, ptr %8) #8
  %13 = load ptr, ptr %5, align 8, !tbaa !25
  %14 = load i32, ptr %6, align 4, !tbaa !14
  %15 = zext i32 %14 to i64
  %16 = getelementptr inbounds nuw i8, ptr %13, i64 %15
  %17 = getelementptr inbounds i8, ptr %16, i64 4
  %18 = call zeroext i16 @ttUSHORT(ptr noundef %17)
  %19 = zext i16 %18 to i32
  store i32 %19, ptr %8, align 4, !tbaa !14
  call void @llvm.lifetime.start.p0(i64 4, ptr %9) #8
  %20 = load i32, ptr %6, align 4, !tbaa !14
  %21 = add i32 %20, 12
  store i32 %21, ptr %9, align 4, !tbaa !14
  call void @llvm.lifetime.start.p0(i64 4, ptr %10) #8
  store i32 0, ptr %10, align 4, !tbaa !14
  br label %22

22:                                               ; preds = %97, %3
  %23 = load i32, ptr %10, align 4, !tbaa !14
  %24 = load i32, ptr %8, align 4, !tbaa !14
  %25 = icmp slt i32 %23, %24
  br i1 %25, label %26, label %100

26:                                               ; preds = %22
  call void @llvm.lifetime.start.p0(i64 4, ptr %11) #8
  %27 = load i32, ptr %9, align 4, !tbaa !14
  %28 = load i32, ptr %10, align 4, !tbaa !14
  %29 = mul nsw i32 16, %28
  %30 = add i32 %27, %29
  store i32 %30, ptr %11, align 4, !tbaa !14
  %31 = load ptr, ptr %5, align 8, !tbaa !25
  %32 = load i32, ptr %11, align 4, !tbaa !14
  %33 = zext i32 %32 to i64
  %34 = getelementptr inbounds nuw i8, ptr %31, i64 %33
  %35 = getelementptr inbounds i8, ptr %34, i64 0
  %36 = getelementptr inbounds i8, ptr %35, i64 0
  %37 = load i8, ptr %36, align 1, !tbaa !13
  %38 = zext i8 %37 to i32
  %39 = load ptr, ptr %7, align 8, !tbaa !25
  %40 = getelementptr inbounds i8, ptr %39, i64 0
  %41 = load i8, ptr %40, align 1, !tbaa !13
  %42 = sext i8 %41 to i32
  %43 = icmp eq i32 %38, %42
  br i1 %43, label %44, label %93

44:                                               ; preds = %26
  %45 = load ptr, ptr %5, align 8, !tbaa !25
  %46 = load i32, ptr %11, align 4, !tbaa !14
  %47 = zext i32 %46 to i64
  %48 = getelementptr inbounds nuw i8, ptr %45, i64 %47
  %49 = getelementptr inbounds i8, ptr %48, i64 0
  %50 = getelementptr inbounds i8, ptr %49, i64 1
  %51 = load i8, ptr %50, align 1, !tbaa !13
  %52 = zext i8 %51 to i32
  %53 = load ptr, ptr %7, align 8, !tbaa !25
  %54 = getelementptr inbounds i8, ptr %53, i64 1
  %55 = load i8, ptr %54, align 1, !tbaa !13
  %56 = sext i8 %55 to i32
  %57 = icmp eq i32 %52, %56
  br i1 %57, label %58, label %93

58:                                               ; preds = %44
  %59 = load ptr, ptr %5, align 8, !tbaa !25
  %60 = load i32, ptr %11, align 4, !tbaa !14
  %61 = zext i32 %60 to i64
  %62 = getelementptr inbounds nuw i8, ptr %59, i64 %61
  %63 = getelementptr inbounds i8, ptr %62, i64 0
  %64 = getelementptr inbounds i8, ptr %63, i64 2
  %65 = load i8, ptr %64, align 1, !tbaa !13
  %66 = zext i8 %65 to i32
  %67 = load ptr, ptr %7, align 8, !tbaa !25
  %68 = getelementptr inbounds i8, ptr %67, i64 2
  %69 = load i8, ptr %68, align 1, !tbaa !13
  %70 = sext i8 %69 to i32
  %71 = icmp eq i32 %66, %70
  br i1 %71, label %72, label %93

72:                                               ; preds = %58
  %73 = load ptr, ptr %5, align 8, !tbaa !25
  %74 = load i32, ptr %11, align 4, !tbaa !14
  %75 = zext i32 %74 to i64
  %76 = getelementptr inbounds nuw i8, ptr %73, i64 %75
  %77 = getelementptr inbounds i8, ptr %76, i64 0
  %78 = getelementptr inbounds i8, ptr %77, i64 3
  %79 = load i8, ptr %78, align 1, !tbaa !13
  %80 = zext i8 %79 to i32
  %81 = load ptr, ptr %7, align 8, !tbaa !25
  %82 = getelementptr inbounds i8, ptr %81, i64 3
  %83 = load i8, ptr %82, align 1, !tbaa !13
  %84 = sext i8 %83 to i32
  %85 = icmp eq i32 %80, %84
  br i1 %85, label %86, label %93

86:                                               ; preds = %72
  %87 = load ptr, ptr %5, align 8, !tbaa !25
  %88 = load i32, ptr %11, align 4, !tbaa !14
  %89 = zext i32 %88 to i64
  %90 = getelementptr inbounds nuw i8, ptr %87, i64 %89
  %91 = getelementptr inbounds i8, ptr %90, i64 8
  %92 = call i32 @ttULONG(ptr noundef %91)
  store i32 %92, ptr %4, align 4
  store i32 1, ptr %12, align 4
  br label %94

93:                                               ; preds = %72, %58, %44, %26
  store i32 0, ptr %12, align 4
  br label %94

94:                                               ; preds = %93, %86
  call void @llvm.lifetime.end.p0(i64 4, ptr %11) #8
  %95 = load i32, ptr %12, align 4
  switch i32 %95, label %101 [
    i32 0, label %96
  ]

96:                                               ; preds = %94
  br label %97

97:                                               ; preds = %96
  %98 = load i32, ptr %10, align 4, !tbaa !14
  %99 = add nsw i32 %98, 1
  store i32 %99, ptr %10, align 4, !tbaa !14
  br label %22, !llvm.loop !26

100:                                              ; preds = %22
  store i32 0, ptr %4, align 4
  store i32 1, ptr %12, align 4
  br label %101

101:                                              ; preds = %100, %94
  call void @llvm.lifetime.end.p0(i64 4, ptr %10) #8
  call void @llvm.lifetime.end.p0(i64 4, ptr %9) #8
  call void @llvm.lifetime.end.p0(i64 4, ptr %8) #8
  %102 = load i32, ptr %4, align 4
  ret i32 %102
}

; Function Attrs: nounwind uwtable
define i32 @stbtt__matches(ptr noundef %0, i32 noundef %1, ptr noundef %2, i32 noundef %3) #0 {
  %5 = alloca i32, align 4
  %6 = alloca ptr, align 8
  %7 = alloca i32, align 4
  %8 = alloca ptr, align 8
  %9 = alloca i32, align 4
  %10 = alloca i32, align 4
  %11 = alloca i32, align 4
  %12 = alloca i32, align 4
  %13 = alloca i32, align 4
  store ptr %0, ptr %6, align 8, !tbaa !25
  store i32 %1, ptr %7, align 4, !tbaa !14
  store ptr %2, ptr %8, align 8, !tbaa !25
  store i32 %3, ptr %9, align 4, !tbaa !14
  call void @llvm.lifetime.start.p0(i64 4, ptr %10) #8
  %14 = load ptr, ptr %8, align 8, !tbaa !25
  %15 = call i64 @strlen(ptr noundef %14) #10
  %16 = trunc i64 %15 to i32
  store i32 %16, ptr %10, align 4, !tbaa !14
  call void @llvm.lifetime.start.p0(i64 4, ptr %11) #8
  call void @llvm.lifetime.start.p0(i64 4, ptr %12) #8
  %17 = load ptr, ptr %6, align 8, !tbaa !25
  %18 = load i32, ptr %7, align 4, !tbaa !14
  %19 = zext i32 %18 to i64
  %20 = getelementptr inbounds nuw i8, ptr %17, i64 %19
  %21 = call i32 @stbtt__isfont(ptr noundef %20)
  %22 = icmp ne i32 %21, 0
  br i1 %22, label %24, label %23

23:                                               ; preds = %4
  store i32 0, ptr %5, align 4
  store i32 1, ptr %13, align 4
  br label %105

24:                                               ; preds = %4
  %25 = load i32, ptr %9, align 4, !tbaa !14
  %26 = icmp ne i32 %25, 0
  br i1 %26, label %27, label %44

27:                                               ; preds = %24
  %28 = load ptr, ptr %6, align 8, !tbaa !25
  %29 = load i32, ptr %7, align 4, !tbaa !14
  %30 = call i32 @stbtt__find_table(ptr noundef %28, i32 noundef %29, ptr noundef @.str.7)
  store i32 %30, ptr %12, align 4, !tbaa !14
  %31 = load ptr, ptr %6, align 8, !tbaa !25
  %32 = load i32, ptr %12, align 4, !tbaa !14
  %33 = zext i32 %32 to i64
  %34 = getelementptr inbounds nuw i8, ptr %31, i64 %33
  %35 = getelementptr inbounds i8, ptr %34, i64 44
  %36 = call zeroext i16 @ttUSHORT(ptr noundef %35)
  %37 = zext i16 %36 to i32
  %38 = and i32 %37, 7
  %39 = load i32, ptr %9, align 4, !tbaa !14
  %40 = and i32 %39, 7
  %41 = icmp ne i32 %38, %40
  br i1 %41, label %42, label %43

42:                                               ; preds = %27
  store i32 0, ptr %5, align 4
  store i32 1, ptr %13, align 4
  br label %105

43:                                               ; preds = %27
  br label %44

44:                                               ; preds = %43, %24
  %45 = load ptr, ptr %6, align 8, !tbaa !25
  %46 = load i32, ptr %7, align 4, !tbaa !14
  %47 = call i32 @stbtt__find_table(ptr noundef %45, i32 noundef %46, ptr noundef @.str.16)
  store i32 %47, ptr %11, align 4, !tbaa !14
  %48 = load i32, ptr %11, align 4, !tbaa !14
  %49 = icmp ne i32 %48, 0
  br i1 %49, label %51, label %50

50:                                               ; preds = %44
  store i32 0, ptr %5, align 4
  store i32 1, ptr %13, align 4
  br label %105

51:                                               ; preds = %44
  %52 = load i32, ptr %9, align 4, !tbaa !14
  %53 = icmp ne i32 %52, 0
  br i1 %53, label %54, label %79

54:                                               ; preds = %51
  %55 = load ptr, ptr %6, align 8, !tbaa !25
  %56 = load i32, ptr %11, align 4, !tbaa !14
  %57 = load ptr, ptr %8, align 8, !tbaa !25
  %58 = load i32, ptr %10, align 4, !tbaa !14
  %59 = call i32 @stbtt__matchpair(ptr noundef %55, i32 noundef %56, ptr noundef %57, i32 noundef %58, i32 noundef 16, i32 noundef -1)
  %60 = icmp ne i32 %59, 0
  br i1 %60, label %61, label %62

61:                                               ; preds = %54
  store i32 1, ptr %5, align 4
  store i32 1, ptr %13, align 4
  br label %105

62:                                               ; preds = %54
  %63 = load ptr, ptr %6, align 8, !tbaa !25
  %64 = load i32, ptr %11, align 4, !tbaa !14
  %65 = load ptr, ptr %8, align 8, !tbaa !25
  %66 = load i32, ptr %10, align 4, !tbaa !14
  %67 = call i32 @stbtt__matchpair(ptr noundef %63, i32 noundef %64, ptr noundef %65, i32 noundef %66, i32 noundef 1, i32 noundef -1)
  %68 = icmp ne i32 %67, 0
  br i1 %68, label %69, label %70

69:                                               ; preds = %62
  store i32 1, ptr %5, align 4
  store i32 1, ptr %13, align 4
  br label %105

70:                                               ; preds = %62
  %71 = load ptr, ptr %6, align 8, !tbaa !25
  %72 = load i32, ptr %11, align 4, !tbaa !14
  %73 = load ptr, ptr %8, align 8, !tbaa !25
  %74 = load i32, ptr %10, align 4, !tbaa !14
  %75 = call i32 @stbtt__matchpair(ptr noundef %71, i32 noundef %72, ptr noundef %73, i32 noundef %74, i32 noundef 3, i32 noundef -1)
  %76 = icmp ne i32 %75, 0
  br i1 %76, label %77, label %78

77:                                               ; preds = %70
  store i32 1, ptr %5, align 4
  store i32 1, ptr %13, align 4
  br label %105

78:                                               ; preds = %70
  br label %104

79:                                               ; preds = %51
  %80 = load ptr, ptr %6, align 8, !tbaa !25
  %81 = load i32, ptr %11, align 4, !tbaa !14
  %82 = load ptr, ptr %8, align 8, !tbaa !25
  %83 = load i32, ptr %10, align 4, !tbaa !14
  %84 = call i32 @stbtt__matchpair(ptr noundef %80, i32 noundef %81, ptr noundef %82, i32 noundef %83, i32 noundef 16, i32 noundef 17)
  %85 = icmp ne i32 %84, 0
  br i1 %85, label %86, label %87

86:                                               ; preds = %79
  store i32 1, ptr %5, align 4
  store i32 1, ptr %13, align 4
  br label %105

87:                                               ; preds = %79
  %88 = load ptr, ptr %6, align 8, !tbaa !25
  %89 = load i32, ptr %11, align 4, !tbaa !14
  %90 = load ptr, ptr %8, align 8, !tbaa !25
  %91 = load i32, ptr %10, align 4, !tbaa !14
  %92 = call i32 @stbtt__matchpair(ptr noundef %88, i32 noundef %89, ptr noundef %90, i32 noundef %91, i32 noundef 1, i32 noundef 2)
  %93 = icmp ne i32 %92, 0
  br i1 %93, label %94, label %95

94:                                               ; preds = %87
  store i32 1, ptr %5, align 4
  store i32 1, ptr %13, align 4
  br label %105

95:                                               ; preds = %87
  %96 = load ptr, ptr %6, align 8, !tbaa !25
  %97 = load i32, ptr %11, align 4, !tbaa !14
  %98 = load ptr, ptr %8, align 8, !tbaa !25
  %99 = load i32, ptr %10, align 4, !tbaa !14
  %100 = call i32 @stbtt__matchpair(ptr noundef %96, i32 noundef %97, ptr noundef %98, i32 noundef %99, i32 noundef 3, i32 noundef -1)
  %101 = icmp ne i32 %100, 0
  br i1 %101, label %102, label %103

102:                                              ; preds = %95
  store i32 1, ptr %5, align 4
  store i32 1, ptr %13, align 4
  br label %105

103:                                              ; preds = %95
  br label %104

104:                                              ; preds = %103, %78
  store i32 0, ptr %5, align 4
  store i32 1, ptr %13, align 4
  br label %105

105:                                              ; preds = %104, %102, %94, %86, %77, %69, %61, %50, %42, %23
  call void @llvm.lifetime.end.p0(i64 4, ptr %12) #8
  call void @llvm.lifetime.end.p0(i64 4, ptr %11) #8
  call void @llvm.lifetime.end.p0(i64 4, ptr %10) #8
  %106 = load i32, ptr %5, align 4
  ret i32 %106
}