; Function Attrs: nofree nounwind memory(argmem: read) uwtable
define range(i32 0, 2) i32 @stbtt__matches(ptr noundef readonly captures(none) %0, i32 noundef %1, ptr noundef readonly captures(none) %2, i32 noundef %3) local_unnamed_addr #29 {
  %5 = tail call i64 @strlen(ptr noundef nonnull dereferenceable(1) %2) #34
  %6 = trunc i64 %5 to i32
  %7 = zext i32 %1 to i64
  %8 = getelementptr inbounds nuw i8, ptr %0, i64 %7
  %9 = tail call i32 @stbtt__isfont(ptr noundef %8)
  %.not = icmp eq i32 %9, 0
  br i1 %.not, label %stbtt__find_table.exit56.thread, label %10

10:                                               ; preds = %4
  %.not39 = icmp eq i32 %3, 0
  %.phi.trans.insert = getelementptr inbounds nuw i8, ptr %8, i64 4
  %.pre = load i8, ptr %.phi.trans.insert, align 1, !tbaa !12
  %.pre74 = add i32 %1, 12
  br i1 %.not39, label %._crit_edge, label %11

._crit_edge:                                      ; preds = %10
  %.phi.trans.insert65 = getelementptr inbounds nuw i8, ptr %8, i64 5
  %.pre66 = load i8, ptr %.phi.trans.insert65, align 1, !tbaa !12
  %.pre67 = zext i8 %.pre to i32
  %.pre68 = shl nuw nsw i32 %.pre67, 8
  %.pre70 = zext i8 %.pre66 to i32
  %.pre72 = or disjoint i32 %.pre68, %.pre70
  br label %63

11:                                               ; preds = %10
  %12 = zext i8 %.pre to i32
  %13 = shl nuw nsw i32 %12, 8
  %14 = getelementptr inbounds nuw i8, ptr %8, i64 5
  %15 = load i8, ptr %14, align 1, !tbaa !12
  %16 = zext i8 %15 to i32
  %17 = or disjoint i32 %13, %16
  %.not.i = icmp eq i32 %17, 0
  br i1 %.not.i, label %stbtt__find_table.exit, label %.lr.ph.i

.lr.ph.i:                                         ; preds = %11
  %wide.trip.count.i = zext nneg i32 %17 to i64
  br label %18

18:                                               ; preds = %56, %.lr.ph.i
  %indvars.iv.i = phi i64 [ 0, %.lr.ph.i ], [ %indvars.iv.next.i, %56 ]
  %indvars.iv.tr.i = trunc i64 %indvars.iv.i to i32
  %19 = shl i32 %indvars.iv.tr.i, 4
  %20 = add i32 %.pre74, %19
  %21 = zext i32 %20 to i64
  %22 = getelementptr inbounds nuw i8, ptr %0, i64 %21
  %23 = load i8, ptr %22, align 1, !tbaa !12
  %24 = icmp eq i8 %23, 104
  br i1 %24, label %25, label %56

25:                                               ; preds = %18
  %26 = getelementptr inbounds nuw i8, ptr %22, i64 1
  %27 = load i8, ptr %26, align 1, !tbaa !12
  %28 = icmp eq i8 %27, 101
  br i1 %28, label %29, label %56

29:                                               ; preds = %25
  %30 = getelementptr inbounds nuw i8, ptr %22, i64 2
  %31 = load i8, ptr %30, align 1, !tbaa !12
  %32 = icmp eq i8 %31, 97
  br i1 %32, label %33, label %56

33:                                               ; preds = %29
  %34 = getelementptr inbounds nuw i8, ptr %22, i64 3
  %35 = load i8, ptr %34, align 1, !tbaa !12
  %36 = icmp eq i8 %35, 100
  br i1 %36, label %37, label %56

37:                                               ; preds = %33
  %38 = getelementptr inbounds nuw i8, ptr %22, i64 8
  %39 = load i8, ptr %38, align 1, !tbaa !12
  %40 = zext i8 %39 to i64
  %41 = shl nuw nsw i64 %40, 24
  %42 = getelementptr inbounds nuw i8, ptr %22, i64 9
  %43 = load i8, ptr %42, align 1, !tbaa !12
  %44 = zext i8 %43 to i64
  %45 = shl nuw nsw i64 %44, 16
  %46 = or disjoint i64 %45, %41
  %47 = getelementptr inbounds nuw i8, ptr %22, i64 10
  %48 = load i8, ptr %47, align 1, !tbaa !12
  %49 = zext i8 %48 to i64
  %50 = shl nuw nsw i64 %49, 8
  %51 = or disjoint i64 %46, %50
  %52 = getelementptr inbounds nuw i8, ptr %22, i64 11
  %53 = load i8, ptr %52, align 1, !tbaa !12
  %54 = zext i8 %53 to i64
  %55 = or disjoint i64 %51, %54
  br label %stbtt__find_table.exit

56:                                               ; preds = %33, %29, %25, %18
  %indvars.iv.next.i = add nuw nsw i64 %indvars.iv.i, 1
  %exitcond.not.i = icmp eq i64 %indvars.iv.next.i, %wide.trip.count.i
  br i1 %exitcond.not.i, label %stbtt__find_table.exit, label %18, !llvm.loop !19

stbtt__find_table.exit:                           ; preds = %56, %11, %37
  %.2.i = phi i64 [ %55, %37 ], [ 0, %11 ], [ 0, %56 ]
  %57 = getelementptr inbounds nuw i8, ptr %0, i64 %.2.i
  %58 = getelementptr inbounds nuw i8, ptr %57, i64 45
  %59 = load i8, ptr %58, align 1, !tbaa !12
  %60 = and i8 %59, 7
  %61 = zext nneg i8 %60 to i32
  %62 = and i32 %3, 7
  %.not40 = icmp eq i32 %62, %61
  br i1 %.not40, label %63, label %stbtt__find_table.exit56.thread

63:                                               ; preds = %._crit_edge, %stbtt__find_table.exit
  %.pre-phi73 = phi i32 [ %.pre72, %._crit_edge ], [ %17, %stbtt__find_table.exit ]
  %.not.i48 = icmp eq i32 %.pre-phi73, 0
  br i1 %.not.i48, label %stbtt__find_table.exit56.thread, label %.lr.ph.i49

.lr.ph.i49:                                       ; preds = %63
  %wide.trip.count.i50 = zext nneg i32 %.pre-phi73 to i64
  br label %64

64:                                               ; preds = %83, %.lr.ph.i49
  %indvars.iv.i51 = phi i64 [ 0, %.lr.ph.i49 ], [ %indvars.iv.next.i53, %83 ]
  %indvars.iv.tr.i52 = trunc i64 %indvars.iv.i51 to i32
  %65 = shl i32 %indvars.iv.tr.i52, 4
  %66 = add i32 %.pre74, %65
  %67 = zext i32 %66 to i64
  %68 = getelementptr inbounds nuw i8, ptr %0, i64 %67
  %69 = load i8, ptr %68, align 1, !tbaa !12
  %70 = icmp eq i8 %69, 110
  br i1 %70, label %71, label %83

71:                                               ; preds = %64
  %72 = getelementptr inbounds nuw i8, ptr %68, i64 1
  %73 = load i8, ptr %72, align 1, !tbaa !12
  %74 = icmp eq i8 %73, 97
  br i1 %74, label %75, label %83

75:                                               ; preds = %71
  %76 = getelementptr inbounds nuw i8, ptr %68, i64 2
  %77 = load i8, ptr %76, align 1, !tbaa !12
  %78 = icmp eq i8 %77, 109
  br i1 %78, label %79, label %83

79:                                               ; preds = %75
  %80 = getelementptr inbounds nuw i8, ptr %68, i64 3
  %81 = load i8, ptr %80, align 1, !tbaa !12
  %82 = icmp eq i8 %81, 101
  br i1 %82, label %stbtt__find_table.exit56, label %83

83:                                               ; preds = %79, %75, %71, %64
  %indvars.iv.next.i53 = add nuw nsw i64 %indvars.iv.i51, 1
  %exitcond.not.i54 = icmp eq i64 %indvars.iv.next.i53, %wide.trip.count.i50
  br i1 %exitcond.not.i54, label %stbtt__find_table.exit56.thread, label %64, !llvm.loop !19

stbtt__find_table.exit56:                         ; preds = %79
  %84 = getelementptr inbounds nuw i8, ptr %68, i64 8
  %85 = load i8, ptr %84, align 1, !tbaa !12
  %86 = zext i8 %85 to i32
  %87 = shl nuw i32 %86, 24
  %88 = getelementptr inbounds nuw i8, ptr %68, i64 9
  %89 = load i8, ptr %88, align 1, !tbaa !12
  %90 = zext i8 %89 to i32
  %91 = shl nuw nsw i32 %90, 16
  %92 = or disjoint i32 %91, %87
  %93 = getelementptr inbounds nuw i8, ptr %68, i64 10
  %94 = load i8, ptr %93, align 1, !tbaa !12
  %95 = zext i8 %94 to i32
  %96 = shl nuw nsw i32 %95, 8
  %97 = or disjoint i32 %92, %96
  %98 = getelementptr inbounds nuw i8, ptr %68, i64 11
  %99 = load i8, ptr %98, align 1, !tbaa !12
  %100 = zext i8 %99 to i32
  %101 = or disjoint i32 %97, %100
  %.not41 = icmp eq i32 %101, 0
  br i1 %.not41, label %stbtt__find_table.exit56.thread, label %102

102:                                              ; preds = %stbtt__find_table.exit56
  br i1 %.not39, label %109, label %103

103:                                              ; preds = %102
  %104 = tail call i32 @stbtt__matchpair(ptr noundef nonnull %0, i32 noundef %101, ptr noundef nonnull %2, i32 noundef %6, i32 noundef 16, i32 noundef -1)
  %.not45 = icmp eq i32 %104, 0
  br i1 %.not45, label %105, label %stbtt__find_table.exit56.thread

105:                                              ; preds = %103
  %106 = tail call i32 @stbtt__matchpair(ptr noundef nonnull %0, i32 noundef %101, ptr noundef nonnull %2, i32 noundef %6, i32 noundef 1, i32 noundef -1)
  %.not46 = icmp eq i32 %106, 0
  br i1 %.not46, label %107, label %stbtt__find_table.exit56.thread

107:                                              ; preds = %105
  %108 = tail call i32 @stbtt__matchpair(ptr noundef nonnull %0, i32 noundef %101, ptr noundef nonnull %2, i32 noundef %6, i32 noundef 3, i32 noundef -1)
  %.not47 = icmp eq i32 %108, 0
  br i1 %.not47, label %115, label %stbtt__find_table.exit56.thread

109:                                              ; preds = %102
  %110 = tail call i32 @stbtt__matchpair(ptr noundef nonnull %0, i32 noundef %101, ptr noundef nonnull %2, i32 noundef %6, i32 noundef 16, i32 noundef 17)
  %.not42 = icmp eq i32 %110, 0
  br i1 %.not42, label %111, label %stbtt__find_table.exit56.thread

111:                                              ; preds = %109
  %112 = tail call i32 @stbtt__matchpair(ptr noundef nonnull %0, i32 noundef %101, ptr noundef nonnull %2, i32 noundef %6, i32 noundef 1, i32 noundef 2)
  %.not43 = icmp eq i32 %112, 0
  br i1 %.not43, label %113, label %stbtt__find_table.exit56.thread

113:                                              ; preds = %111
  %114 = tail call i32 @stbtt__matchpair(ptr noundef nonnull %0, i32 noundef %101, ptr noundef nonnull %2, i32 noundef %6, i32 noundef 3, i32 noundef -1)
  %.not44 = icmp eq i32 %114, 0
  br i1 %.not44, label %115, label %stbtt__find_table.exit56.thread

115:                                              ; preds = %113, %107
  br label %stbtt__find_table.exit56.thread

stbtt__find_table.exit56.thread:                  ; preds = %83, %63, %113, %111, %109, %107, %105, %103, %stbtt__find_table.exit56, %stbtt__find_table.exit, %4, %115
  %.0 = phi i32 [ 0, %115 ], [ 0, %4 ], [ 0, %stbtt__find_table.exit ], [ 0, %stbtt__find_table.exit56 ], [ 1, %103 ], [ 1, %105 ], [ 1, %107 ], [ 1, %109 ], [ 1, %111 ], [ 1, %113 ], [ 0, %63 ], [ 0, %83 ]
  ret i32 %.0
}